(lp0
((dp1
I0
F0.0
sI1
F1.7258250365610057
sI2
F5.426264754702098
sI3
F0.0
sI4
F3.841302253980942
sI5
F0.618909832644494
sI6
F0.0
sI7
F0.0
sI8
F2.426264754702098
sI9
F5.426264754702098
sI10
F0.0
sI11
F0.2563397532597856
sI12
F0.0
sI13
F0.8413022539809418
sI14
F0.033947331923337536
sI15
F2.1043366598147357
sI16
F0.2969817377571316
sI17
F4.426264754702098
sI18
F0.033947331923337536
sI19
F5.426264754702098
sI20
F0.0
sI21
F4.426264754702098
sI22
F2.618909832644494
sI23
F0.0
sI24
F0.033947331923337536
sI25
F0.618909832644494
sI26
F5.426264754702098
sI27
F0.0
sI28
F3.841302253980942
sI29
F0.0
sI30
F2.2563397532597858
sI31
F0.0
sI32
F2.841302253980942
sI33
F5.426264754702098
sI34
F1.6189098326444942
sI35
F4.426264754702098
sI36
F5.426264754702098
sI37
F0.0
sI38
F0.0
sI39
F0.0
sI40
F0.0
sI41
F3.841302253980942
sI42
F5.426264754702098
sI43
F2.841302253980942
sI44
F0.0
sI45
F5.426264754702098
sI46
F2.426264754702098
sI47
F0.0
sI48
F0.0
sI49
F0.0
sI50
F4.426264754702098
sI51
F0.1408625358398497
sI52
F0.0
sI53
F0.0
sI54
F3.426264754702098
sI55
F3.841302253980942
sI56
F5.426264754702098
sI57
F0.0
sI58
F3.841302253980942
sI59
F4.426264754702098
sI60
F1.7258250365610057
sI61
F2.426264754702098
sI62
F0.0
sI63
F0.0
sI64
F5.426264754702098
sI65
F4.426264754702098
sI66
F0.0
sI67
F2.426264754702098
sI68
F3.841302253980942
sI69
F5.426264754702098
sI70
F0.0
sI71
F0.0
sI72
F5.426264754702098
sI73
F3.841302253980942
sI74
F0.38187063534364446
sI75
F0.5193741590935794
sI76
F5.426264754702098
sI77
F0.7258250365610058
sI78
F0.0
sI79
F0.0
sI80
F0.0
sI81
F0.5193741590935794
sI82
F5.426264754702098
sI83
F0.0
sI84
F3.426264754702098
sI85
F5.426264754702098
sI86
F5.426264754702098
sI87
F0.033947331923337536
sI88
F0.7258250365610058
sI89
F5.426264754702098
sI90
F0.0
sI91
F0.21681138907314804
sI92
F0.0
sI93
F5.426264754702098
sI94
F0.0
sI95
F5.426264754702098
sI96
F0.0
sI97
F0.9027027986450852
sI98
F0.5682837595745259
sI99
F5.426264754702098
sI100
F0.0
sI101
F0.0
sI102
F5.426264754702098
sI103
F0.6713772525386293
sI104
F2.1043366598147357
sI105
F5.426264754702098
sI106
F1.9668331360648008
sI107
F3.841302253980942
sI108
F5.426264754702098
sI109
F1.1783372412585125
sI110
F4.426264754702098
sI111
F1.0339473319233377
sI112
F1.1783372412585125
sI113
F5.426264754702098
sI114
F1.5193741590935794
sI115
F1.9668331360648008
sI116
F5.426264754702098
sI117
F1.0339473319233377
sI118
F1.1783372412585125
sI119
F1.1783372412585125
sI120
F5.426264754702098
sI121
F5.426264754702098
sI122
F4.426264754702098
sI123
F5.426264754702098
sI124
F1.1043366598147357
sI125
F4.426264754702098
sI126
F4.426264754702098
sI127
F5.426264754702098
sI128
F5.426264754702098
sI129
F5.426264754702098
sI130
F4.426264754702098
sI131
F3.841302253980942
sI132
F1.3388019134517586
sI133
F4.426264754702098
sI134
F2.2563397532597858
sI135
F5.426264754702098
sI136
F0.7824085649273733
sI137
F2.618909832644494
sI138
F1.3388019134517586
sI139
F1.1783372412585125
sI140
F1.841302253980942
sI141
F4.426264754702098
sI142
F5.426264754702098
sI143
F0.7824085649273733
sI144
F5.426264754702098
sI145
F3.841302253980942
sI146
F0.7258250365610058
sI147
F1.1783372412585125
sI148
F5.426264754702098
sI149
F5.426264754702098
sI150
F3.426264754702098
sI151
F3.1043366598147353
sI152
F5.426264754702098
sI153
F5.426264754702098
sI154
F5.426264754702098
sI155
F5.426264754702098
sI156
F5.426264754702098
sI157
F4.426264754702098
sI158
F5.426264754702098
sI159
F5.426264754702098
sI160
F5.426264754702098
sI161
F3.426264754702098
sI162
F3.841302253980942
sI163
F2.618909832644494
sI164
F5.426264754702098
sI165
F5.426264754702098
sI166
F5.426264754702098
sI167
F5.426264754702098
sI168
F5.426264754702098
sI169
F5.426264754702098
sI170
F5.426264754702098
sI171
F2.426264754702098
sI172
F1.2563397532597858
sI173
F0.3388019134517585
sI174
F5.426264754702098
sI175
F5.426264754702098
sI176
F5.426264754702098
sI177
F5.426264754702098
sI178
F3.426264754702098
sI179
F5.426264754702098
sI180
F5.426264754702098
sI181
F4.426264754702098
sI182
F5.426264754702098
sI183
F5.426264754702098
sI184
F4.426264754702098
sI185
F5.426264754702098
sI186
F5.426264754702098
sI187
F5.426264754702098
sI188
F5.426264754702098
sI189
F2.426264754702098
sI190
F5.426264754702098
sI191
F5.426264754702098
sI192
F4.426264754702098
sI193
F5.426264754702098
sI194
F3.426264754702098
sI195
F5.426264754702098
sI196
F4.426264754702098
sI197
F5.426264754702098
sI198
F0.3388019134517585
sI199
F5.426264754702098
sI200
F5.426264754702098
sI201
F5.426264754702098
sI202
F5.426264754702098
sI203
F5.426264754702098
sI204
F5.426264754702098
sI205
F5.426264754702098
sI206
F5.426264754702098
sI207
F4.426264754702098
sI208
F4.426264754702098
sI209
F4.426264754702098
sI210
F2.841302253980942
sI211
F3.1043366598147353
sI212
F3.426264754702098
sI213
F0.7258250365610058
sI214
F5.426264754702098
sI215
F1.2563397532597858
sI216
F3.841302253980942
sI217
F1.0339473319233377
sI218
F1.841302253980942
sI219
F0.2563397532597856
sI220
F5.426264754702098
sI221
F1.0339473319233377
sI222
F2.618909832644494
sI223
F4.426264754702098
sI224
F1.0339473319233377
sI225
F5.426264754702098
sI226
F1.841302253980942
sI227
F5.426264754702098
sI228
F5.426264754702098
sI229
F2.426264754702098
sI230
F3.841302253980942
sI231
F4.426264754702098
sI232
F2.841302253980942
sI233
F3.841302253980942
sI234
F5.426264754702098
sI235
F3.841302253980942
sI236
F4.426264754702098
sI237
F5.426264754702098
sI238
F2.1043366598147357
sI239
F2.2563397532597858
sI240
F5.426264754702098
sI241
F2.426264754702098
sI242
F5.426264754702098
sI243
F5.426264754702098
sI244
F5.426264754702098
sI245
F2.841302253980942
sI246
F5.426264754702098
sI247
F3.841302253980942
sI248
F5.426264754702098
sI249
F4.426264754702098
sI250
F4.426264754702098
sI251
F3.841302253980942
sI252
F2.618909832644494
sI253
F2.426264754702098
sI254
F5.426264754702098
sI255
F3.841302253980942
sI256
F1.2563397532597858
sI257
F5.426264754702098
sI258
F4.426264754702098
sI259
F5.426264754702098
sI260
F4.426264754702098
sI261
F2.618909832644494
sI262
F3.426264754702098
sI263
F5.426264754702098
sI264
F5.426264754702098
sI265
F5.426264754702098
sI266
F4.426264754702098
sI267
F5.426264754702098
sI268
F4.426264754702098
sI269
F5.426264754702098
sI270
F5.426264754702098
sI271
F5.426264754702098
sI272
F2.618909832644494
sI273
F5.426264754702098
sI274
F5.426264754702098
sI275
F5.426264754702098
sI276
F5.426264754702098
sI277
F5.426264754702098
sI278
F5.426264754702098
sI279
F5.426264754702098
sI280
F5.426264754702098
sI281
F4.426264754702098
sI282
F5.426264754702098
sI283
F5.426264754702098
sI284
F5.426264754702098
sI285
F5.426264754702098
sI286
F3.841302253980942
sI287
F5.426264754702098
sI288
F5.426264754702098
sI289
F5.426264754702098
sI290
F5.426264754702098
sI291
F5.426264754702098
sI292
F5.426264754702098
sI293
F5.426264754702098
sI294
F3.841302253980942
sI295
F5.426264754702098
sI296
F3.841302253980942
sI297
F5.426264754702098
sI298
F3.426264754702098
sI299
F3.426264754702098
sI300
F5.426264754702098
sI301
F5.426264754702098
sI302
F5.426264754702098
sI303
F5.426264754702098
sI304
F2.618909832644494
sI305
F5.426264754702098
sI306
F5.426264754702098
sI307
F2.2563397532597858
sI308
F2.426264754702098
sI309
F5.426264754702098
sI310
F5.426264754702098
sI311
F2.618909832644494
sI312
F4.426264754702098
sI313
F5.426264754702098
sI314
F5.426264754702098
sI315
F5.426264754702098
sI316
F5.426264754702098
sI317
F5.426264754702098
sI318
F5.426264754702098
sI319
F1.841302253980942
sI320
F4.426264754702098
sI321
F5.426264754702098
sI322
F2.426264754702098
sI323
F5.426264754702098
sI324
F3.1043366598147353
sI325
F5.426264754702098
sI326
F3.841302253980942
sI327
F4.426264754702098
sI328
F5.426264754702098
sI329
F2.841302253980942
sI330
F5.426264754702098
sI331
F5.426264754702098
sI332
F5.426264754702098
sI333
F5.426264754702098
sI334
F4.426264754702098
sI335
F5.426264754702098
sI336
F5.426264754702098
sI337
F5.426264754702098
sI338
F5.426264754702098
sI339
F3.1043366598147353
sI340
F5.426264754702098
sI341
F2.426264754702098
sI342
F5.426264754702098
sI343
F2.2563397532597858
sI344
F5.426264754702098
sI345
F5.426264754702098
sI346
F5.426264754702098
sI347
F5.426264754702098
sI348
F5.426264754702098
sI349
F5.426264754702098
sI350
F5.426264754702098
sI351
F5.426264754702098
sI352
F5.426264754702098
sI353
F5.426264754702098
sI354
F5.426264754702098
sI355
F5.426264754702098
sI356
F5.426264754702098
sI357
F3.426264754702098
sI358
F4.426264754702098
sI359
F5.426264754702098
sI360
F5.426264754702098
sI361
F5.426264754702098
sI362
F3.426264754702098
sI363
F5.426264754702098
sI364
F3.841302253980942
sI365
F5.426264754702098
sI366
F5.426264754702098
sI367
F5.426264754702098
sI368
F5.426264754702098
sI369
F5.426264754702098
sI370
F5.426264754702098
sI371
F5.426264754702098
sI372
F5.426264754702098
sI373
F4.426264754702098
sI374
F5.426264754702098
sI375
F5.426264754702098
sI376
F5.426264754702098
sI377
F3.426264754702098
sI378
F3.426264754702098
sI379
F5.426264754702098
sI380
F5.426264754702098
sI381
F5.426264754702098
sI382
F5.426264754702098
sI383
F5.426264754702098
sI384
F5.426264754702098
sI385
F5.426264754702098
sI386
F5.426264754702098
sI387
F5.426264754702098
sI388
F5.426264754702098
sI389
F5.426264754702098
sI390
F5.426264754702098
sI391
F5.426264754702098
sI392
F5.426264754702098
sI393
F5.426264754702098
sI394
F5.426264754702098
sI395
F4.426264754702098
sI396
F5.426264754702098
sI397
F5.426264754702098
sI398
F5.426264754702098
sI399
F5.426264754702098
sI400
F2.841302253980942
sI401
F2.841302253980942
sI402
F5.426264754702098
sI403
F5.426264754702098
sI404
F5.426264754702098
sI405
F5.426264754702098
sI406
F3.841302253980942
sI407
F5.426264754702098
sI408
F5.426264754702098
sI409
F5.426264754702098
sI410
F5.426264754702098
sI411
F5.426264754702098
sI412
F5.426264754702098
sI413
F4.426264754702098
sI414
F5.426264754702098
sI415
F5.426264754702098
sI416
F4.426264754702098
sI417
F5.426264754702098
sI418
F5.426264754702098
sI419
F5.426264754702098
sI420
F4.426264754702098
sI421
F5.426264754702098
sI422
F5.426264754702098
sI423
F5.426264754702098
sI424
F5.426264754702098
sI425
F5.426264754702098
sI426
F5.426264754702098
sI427
F5.426264754702098
sI428
F4.426264754702098
sI429
F5.426264754702098
sI430
F5.426264754702098
sI431
F5.426264754702098
sI432
F5.426264754702098
sI433
F5.426264754702098
sI434
F4.426264754702098
sI435
F5.426264754702098
sI436
F3.841302253980942
sI437
F5.426264754702098
sI438
F5.426264754702098
sI439
F5.426264754702098
sI440
F5.426264754702098
sI441
F5.426264754702098
sI442
F5.426264754702098
sI443
F5.426264754702098
sI444
F5.426264754702098
sI445
F5.426264754702098
sI446
F3.841302253980942
sI447
F3.841302253980942
sI448
F5.426264754702098
sI449
F5.426264754702098
sI450
F3.426264754702098
sI451
F5.426264754702098
sI452
F5.426264754702098
sI453
F5.426264754702098
sI454
F5.426264754702098
sI455
F4.426264754702098
sI456
F5.426264754702098
sI457
F3.841302253980942
sI458
F3.841302253980942
sI459
F5.426264754702098
sI460
F3.841302253980942
sI461
F5.426264754702098
sI462
F4.426264754702098
sI463
F5.426264754702098
sI464
F3.841302253980942
sI465
F5.426264754702098
sI466
F5.426264754702098
sI467
F5.426264754702098
sI468
F5.426264754702098
sI469
F5.426264754702098
sI470
F3.841302253980942
sI471
F5.426264754702098
sI472
F5.426264754702098
sI473
F2.841302253980942
sI474
F5.426264754702098
sI475
F5.426264754702098
sI476
F5.426264754702098
sI477
F5.426264754702098
sI478
F5.426264754702098
sI479
F5.426264754702098
sI480
F4.426264754702098
sI481
F5.426264754702098
sI482
F5.426264754702098
sI483
F5.426264754702098
sI484
F4.426264754702098
sI485
F5.426264754702098
sI486
F5.426264754702098
sI487
F5.426264754702098
sI488
F2.618909832644494
sI489
F3.1043366598147353
sI490
F4.426264754702098
sI491
F5.426264754702098
sI492
F5.426264754702098
sI493
F5.426264754702098
sI494
F5.426264754702098
sI495
F4.426264754702098
sI496
F5.426264754702098
sI497
F5.426264754702098
sI498
F4.426264754702098
sI499
F5.426264754702098
sI500
F5.426264754702098
sI501
F4.426264754702098
sI502
F5.426264754702098
sI503
F5.426264754702098
sI504
F5.426264754702098
sI505
F5.426264754702098
sI506
F5.426264754702098
sI507
F5.426264754702098
sI508
F5.426264754702098
sI509
F5.426264754702098
sI510
F3.426264754702098
sI511
F4.426264754702098
sI512
F5.426264754702098
sI513
F5.426264754702098
sI514
F5.426264754702098
sI515
F5.426264754702098
sI516
F5.426264754702098
sI517
F5.426264754702098
sI518
F5.426264754702098
sI519
F5.426264754702098
sI520
F5.426264754702098
sI521
F5.426264754702098
sI522
F5.426264754702098
sI523
F4.426264754702098
sI524
F5.426264754702098
sI525
F2.841302253980942
sI526
F3.841302253980942
sI527
F5.426264754702098
sI528
F5.426264754702098
sI529
F5.426264754702098
sI530
F5.426264754702098
sI531
F5.426264754702098
sI532
F5.426264754702098
sI533
F5.426264754702098
sI534
F5.426264754702098
sI535
F5.426264754702098
sI536
F5.426264754702098
sI537
F4.426264754702098
sI538
F5.426264754702098
sI539
F5.426264754702098
sI540
F5.426264754702098
sI541
F5.426264754702098
sI542
F5.426264754702098
sI543
F5.426264754702098
sI544
F5.426264754702098
sI545
F5.426264754702098
sI546
F5.426264754702098
sI547
F5.426264754702098
sI548
F5.426264754702098
sI549
F5.426264754702098
sI550
F5.426264754702098
sI551
F3.426264754702098
sI552
F4.426264754702098
sI553
F5.426264754702098
sI554
F5.426264754702098
sI555
F5.426264754702098
sI556
F5.426264754702098
sI557
F5.426264754702098
sI558
F3.1043366598147353
sI559
F3.841302253980942
sI560
F5.426264754702098
sI561
F5.426264754702098
sI562
F5.426264754702098
sI563
F4.426264754702098
sI564
F5.426264754702098
sI565
F5.426264754702098
sI566
F5.426264754702098
sI567
F5.426264754702098
sI568
F4.426264754702098
sI569
F5.426264754702098
sI570
F5.426264754702098
sI571
F5.426264754702098
sI572
F5.426264754702098
sI573
F4.426264754702098
sI574
F5.426264754702098
sI575
F5.426264754702098
sI576
F5.426264754702098
sI577
F5.426264754702098
sI578
F5.426264754702098
sI579
F5.426264754702098
sI580
F5.426264754702098
sI581
F5.426264754702098
sI582
F3.841302253980942
sI583
F5.426264754702098
sI584
F5.426264754702098
sI585
F5.426264754702098
sI586
F2.426264754702098
sI587
F3.841302253980942
sI588
F5.426264754702098
sI589
F5.426264754702098
sI590
F3.841302253980942
sI591
F5.426264754702098
sI592
F1.9668331360648008
sI593
F1.841302253980942
sI594
F5.426264754702098
sI595
F5.426264754702098
sI596
F5.426264754702098
sI597
F5.426264754702098
sI598
F2.426264754702098
sI599
F5.426264754702098
sI600
F3.841302253980942
sI601
F5.426264754702098
sI602
F5.426264754702098
sI603
F5.426264754702098
sI604
F5.426264754702098
sI605
F5.426264754702098
sI606
F5.426264754702098
sI607
F5.426264754702098
sI608
F5.426264754702098
sI609
F5.426264754702098
sI610
F5.426264754702098
sI611
F4.426264754702098
sI612
F5.426264754702098
sI613
F3.841302253980942
sI614
F5.426264754702098
sI615
F4.426264754702098
sI616
F5.426264754702098
sI617
F5.426264754702098
sI618
F5.426264754702098
sI619
F5.426264754702098
sI620
F5.426264754702098
sI621
F3.841302253980942
sI622
F5.426264754702098
sI623
F4.426264754702098
sI624
F5.426264754702098
sI625
F5.426264754702098
sI626
F5.426264754702098
sI627
F5.426264754702098
sI628
F5.426264754702098
sI629
F5.426264754702098
sI630
F5.426264754702098
sI631
F5.426264754702098
sI632
F5.426264754702098
sI633
F3.1043366598147353
sI634
F5.426264754702098
sI635
F5.426264754702098
sI636
F5.426264754702098
sI637
F5.426264754702098
sI638
F5.426264754702098
sI639
F5.426264754702098
sI640
F5.426264754702098
sI641
F3.426264754702098
sI642
F5.426264754702098
sI643
F5.426264754702098
sI644
F4.426264754702098
sI645
F5.426264754702098
sI646
F5.426264754702098
sI647
F5.426264754702098
sI648
F5.426264754702098
sI649
F5.426264754702098
sI650
F5.426264754702098
sI651
F5.426264754702098
sI652
F5.426264754702098
sI653
F5.426264754702098
sI654
F5.426264754702098
sI655
F5.426264754702098
sI656
F5.426264754702098
sI657
F5.426264754702098
sI658
F5.426264754702098
sI659
F5.426264754702098
sI660
F5.426264754702098
sI661
F5.426264754702098
sI662
F5.426264754702098
sI663
F3.426264754702098
sI664
F5.426264754702098
sI665
F5.426264754702098
sI666
F5.426264754702098
sI667
F5.426264754702098
sI668
F5.426264754702098
sI669
F5.426264754702098
sI670
F5.426264754702098
sI671
F5.426264754702098
sI672
F5.426264754702098
sI673
F5.426264754702098
sI674
F5.426264754702098
sI675
F5.426264754702098
sI676
F5.426264754702098
sI677
F5.426264754702098
sI678
F5.426264754702098
sI679
F5.426264754702098
sI680
F3.841302253980942
sI681
F5.426264754702098
sI682
F5.426264754702098
sI683
F5.426264754702098
sI684
F5.426264754702098
sI685
F5.426264754702098
sI686
F5.426264754702098
sI687
F5.426264754702098
sI688
F5.426264754702098
sI689
F5.426264754702098
sI690
F5.426264754702098
sI691
F2.841302253980942
sI692
F3.426264754702098
sI693
F5.426264754702098
sI694
F4.426264754702098
sI695
F5.426264754702098
sI696
F5.426264754702098
sI697
F5.426264754702098
sI698
F5.426264754702098
sI699
F5.426264754702098
sI700
F5.426264754702098
sI701
F5.426264754702098
sI702
F5.426264754702098
sI703
F4.426264754702098
sI704
F5.426264754702098
sI705
F5.426264754702098
sI706
F5.426264754702098
sI707
F5.426264754702098
sI708
F3.841302253980942
sI709
F5.426264754702098
sI710
F5.426264754702098
sI711
F5.426264754702098
sI712
F5.426264754702098
sI713
F5.426264754702098
sI714
F5.426264754702098
sI715
F5.426264754702098
sI716
F5.426264754702098
sI717
F5.426264754702098
sI718
F5.426264754702098
sI719
F5.426264754702098
sI720
F5.426264754702098
sI721
F5.426264754702098
sI722
F5.426264754702098
sI723
F5.426264754702098
sI724
F5.426264754702098
sI725
F5.426264754702098
sI726
F5.426264754702098
sI727
F5.426264754702098
sI728
F5.426264754702098
sI729
F5.426264754702098
sI730
F5.426264754702098
sI731
F5.426264754702098
sI732
F4.426264754702098
sI733
F5.426264754702098
sI734
F5.426264754702098
sI735
F4.426264754702098
sI736
F3.841302253980942
sI737
F5.426264754702098
sI738
F3.426264754702098
sI739
F5.426264754702098
sI740
F5.426264754702098
sI741
F5.426264754702098
sI742
F5.426264754702098
sI743
F5.426264754702098
sI744
F5.426264754702098
sI745
F5.426264754702098
sI746
F5.426264754702098
sI747
F5.426264754702098
sI748
F5.426264754702098
sI749
F5.426264754702098
sI750
F5.426264754702098
sI751
F5.426264754702098
sI752
F5.426264754702098
sI753
F5.426264754702098
sI754
F5.426264754702098
sI755
F5.426264754702098
sI756
F5.426264754702098
sI757
F5.426264754702098
sI758
F5.426264754702098
sI759
F5.426264754702098
sI760
F5.426264754702098
sI761
F4.426264754702098
sI762
F5.426264754702098
sI763
F5.426264754702098
sI764
F5.426264754702098
sI765
F3.841302253980942
sI766
F3.841302253980942
sI767
F5.426264754702098
sI768
F5.426264754702098
sI769
F5.426264754702098
sI770
F5.426264754702098
sI771
F5.426264754702098
sI772
F5.426264754702098
sI773
F5.426264754702098
sI774
F5.426264754702098
sI775
F5.426264754702098
sI776
F5.426264754702098
sI777
F5.426264754702098
sI778
F5.426264754702098
sI779
F5.426264754702098
sI780
F5.426264754702098
sI781
F5.426264754702098
sI782
F5.426264754702098
sI783
F5.426264754702098
sI784
F5.426264754702098
sI785
F5.426264754702098
sI786
F5.426264754702098
sI787
F5.426264754702098
sI788
F5.426264754702098
sI789
F5.426264754702098
sI790
F5.426264754702098
sI791
F5.426264754702098
sI792
F5.426264754702098
sI793
F5.426264754702098
sI794
F5.426264754702098
sI795
F5.426264754702098
sI796
F5.426264754702098
sI797
F5.426264754702098
sI798
F5.426264754702098
sI799
F4.426264754702098
sI800
F4.426264754702098
sI801
F4.426264754702098
sI802
F4.426264754702098
sI803
F4.426264754702098
sI804
F4.426264754702098
sI805
F4.426264754702098
sI806
F4.426264754702098
sI807
F4.426264754702098
sI808
F4.426264754702098
sI809
F4.426264754702098
sI810
F4.426264754702098
sI811
F4.426264754702098
sI812
F4.426264754702098
sI813
F4.426264754702098
sI814
F4.426264754702098
sI815
F4.426264754702098
sI816
F4.426264754702098
sI817
F4.426264754702098
sI818
F4.426264754702098
sI819
F4.426264754702098
sI820
F4.426264754702098
sI821
F4.426264754702098
sI822
F4.426264754702098
sI823
F4.426264754702098
sI824
F4.426264754702098
sI825
F5.426264754702098
sI826
F5.426264754702098
sI827
F5.426264754702098
sI828
F5.426264754702098
sI829
F5.426264754702098
sI830
F5.426264754702098
sI831
F5.426264754702098
sI832
F5.426264754702098
sI833
F5.426264754702098
sI834
F5.426264754702098
sI835
F5.426264754702098
sI836
F5.426264754702098
sI837
F5.426264754702098
sI838
F5.426264754702098
sI839
F5.426264754702098
sI840
F5.426264754702098
sI841
F5.426264754702098
sI842
F5.426264754702098
sI843
F5.426264754702098
sI844
F5.426264754702098
sI845
F5.426264754702098
sI846
F5.426264754702098
sI847
F5.426264754702098
sI848
F5.426264754702098
sI849
F5.426264754702098
sI850
F5.426264754702098
sI851
F5.426264754702098
sI852
F5.426264754702098
sI853
F5.426264754702098
sI854
F5.426264754702098
sI855
F5.426264754702098
sI856
F5.426264754702098
sI857
F5.426264754702098
sI858
F5.426264754702098
sI859
F5.426264754702098
sI860
F5.426264754702098
sI861
F5.426264754702098
sI862
F5.426264754702098
sI863
F5.426264754702098
sI864
F5.426264754702098
sI865
F5.426264754702098
sI866
F5.426264754702098
sI867
F5.426264754702098
sI868
F5.426264754702098
sI869
F5.426264754702098
sI870
F5.426264754702098
sI871
F5.426264754702098
sI872
F5.426264754702098
sI873
F5.426264754702098
sI874
F5.426264754702098
sI875
F5.426264754702098
sI876
F5.426264754702098
sI877
F5.426264754702098
sI878
F5.426264754702098
sI879
F5.426264754702098
sI880
F5.426264754702098
sI881
F5.426264754702098
sI882
F5.426264754702098
sI883
F5.426264754702098
sI884
F5.426264754702098
sI885
F5.426264754702098
sI886
F5.426264754702098
sI887
F5.426264754702098
sI888
F5.426264754702098
sI889
F5.426264754702098
sI890
F5.426264754702098
sI891
F3.426264754702098
sI892
F5.426264754702098
sI893
F5.426264754702098
sI894
F3.841302253980942
sI895
F3.426264754702098
sI896
F5.426264754702098
sI897
F5.426264754702098
sI898
F3.426264754702098
sI899
F5.426264754702098
sI900
F5.426264754702098
sI901
F4.426264754702098
sI902
F4.426264754702098
sI903
F4.426264754702098
sI904
F5.426264754702098
sI905
F4.426264754702098
sI906
F4.426264754702098
sI907
F4.426264754702098
sI908
F4.426264754702098
sI909
F4.426264754702098
sI910
F4.426264754702098
sI911
F4.426264754702098
sI912
F4.426264754702098
sI913
F4.426264754702098
sI914
F5.426264754702098
sI915
F4.426264754702098
sI916
F4.426264754702098
sI917
F4.426264754702098
sI918
F4.426264754702098
sI919
F4.426264754702098
sI920
F4.426264754702098
sI921
F4.426264754702098
sI922
F4.426264754702098
sI923
F4.426264754702098
sI924
F5.426264754702098
sI925
F4.426264754702098
sI926
F5.426264754702098
sI927
F5.426264754702098
sI928
F5.426264754702098
sI929
F5.426264754702098
sI930
F5.426264754702098
sI931
F5.426264754702098
sI932
F5.426264754702098
sI933
F5.426264754702098
sI934
F5.426264754702098
sI935
F5.426264754702098
sI936
F5.426264754702098
sI937
F5.426264754702098
sI938
F5.426264754702098
sI939
F5.426264754702098
sI940
F5.426264754702098
sI941
F5.426264754702098
sI942
F5.426264754702098
sI943
F5.426264754702098
sI944
F5.426264754702098
sI945
F5.426264754702098
sI946
F4.426264754702098
sI947
F5.426264754702098
sI948
F5.426264754702098
sI949
F5.426264754702098
sI950
F5.426264754702098
sI951
F5.426264754702098
sI952
F5.426264754702098
sI953
F5.426264754702098
sI954
F5.426264754702098
sI955
F5.426264754702098
sI956
F5.426264754702098
sI957
F5.426264754702098
sI958
F5.426264754702098
sI959
F5.426264754702098
sI960
F5.426264754702098
sI961
F5.426264754702098
sI962
F5.426264754702098
sI963
F5.426264754702098
sI964
F5.426264754702098
sI965
F5.426264754702098
sI966
F5.426264754702098
sI967
F5.426264754702098
sI968
F5.426264754702098
sI969
F5.426264754702098
sI970
F5.426264754702098
sI971
F5.426264754702098
sI972
F5.426264754702098
sI973
F5.426264754702098
sI974
F5.426264754702098
sI975
F5.426264754702098
s(dp2
S'label'
p3
S'0'
p4
stp5
a((dp6
I0
F0.0
sI1
F0.0
sI2
F0.0
sI3
F3.6438561897747253
sI4
F0.0
sI5
F0.05889368905356862
sI6
F5.643856189774724
sI7
F1.8365012677171209
sI8
F0.0
sI9
F0.0
sI10
F0.02914634565951651
sI11
F0.0
sI12
F0.0
sI13
F5.643856189774724
sI14
F0.05889368905356862
sI15
F3.473931188332412
sI16
F2.473931188332412
sI17
F3.473931188332412
sI18
F5.058893689053569
sI19
F0.01449956969511517
sI20
F0.0
sI21
F6.643856189774725
sI22
F0.0
sI23
F0.3040061868900999
sI24
F0.0
sI25
F0.0
sI26
F0.05889368905356862
sI27
F1.2515387669959643
sI28
F0.0
sI29
F0.8889686876112561
sI30
F3.473931188332412
sI31
F2.2515387669959646
sI32
F0.04394334758759686
sI33
F0.07400058144377678
sI34
F0.0
sI35
F1.0588936890535687
sI36
F4.643856189774724
sI37
F0.0
sI38
F0.04394334758759686
sI39
F0.0
sI40
F0.0
sI41
F2.8365012677171206
sI42
F0.0
sI43
F0.0
sI44
F0.0
sI45
F0.0
sI46
F0.0
sI47
F0.5563933485243854
sI48
F0.0
sI49
F0.0
sI50
F0.0
sI51
F1.5563933485243855
sI52
F0.0
sI53
F1.0
sI54
F0.0
sI55
F0.02914634565951651
sI56
F5.058893689053569
sI57
F5.643856189774724
sI58
F0.0
sI59
F0.0
sI60
F0.5353317329965556
sI61
F0.0
sI62
F5.643856189774724
sI63
F2.473931188332412
sI64
F5.058893689053569
sI65
F0.3040061868900999
sI66
F0.6665762662748081
sI67
F0.0
sI68
F1.8365012677171209
sI69
F5.643856189774724
sI70
F1.7369655941662063
sI71
F2.9434164716336326
sI72
F0.5145731728297582
sI73
F2.643856189774725
sI74
F3.0588936890535687
sI75
F6.643856189774725
sI76
F1.6896598793878495
sI77
F5.058893689053569
sI78
F6.643856189774725
sI79
F6.643856189774725
sI80
F6.643856189774725
sI81
F3.8365012677171206
sI82
F6.643856189774725
sI83
F3.3219280948873626
sI84
F0.6665762662748081
sI85
F6.643856189774725
sI86
F5.058893689053569
sI87
F1.7369655941662063
sI88
F5.643856189774724
sI89
F6.643856189774725
sI90
F6.643856189774725
sI91
F0.23446525363702297
sI92
F6.643856189774725
sI93
F0.3040061868900999
sI94
F3.3219280948873626
sI95
F0.2515387669959644
sI96
F6.643856189774725
sI97
F2.1202942337177118
sI98
F0.9159357352115255
sI99
F3.8365012677171206
sI100
F5.058893689053569
sI101
F0.5777669993169523
sI102
F1.3584539709124765
sI103
F0.9159357352115255
sI104
F6.643856189774725
sI105
F6.643856189774725
sI106
F0.2515387669959644
sI107
F6.643856189774725
sI108
F1.8889686876112561
sI109
F6.643856189774725
sI110
F0.0892673380970873
sI111
F6.643856189774725
sI112
F2.0
sI113
F0.6438561897747247
sI114
F5.643856189774724
sI115
F5.643856189774724
sI116
F6.643856189774725
sI117
F1.434402824145775
sI118
F6.643856189774725
sI119
F0.6214883767462703
sI120
F6.643856189774725
sI121
F1.8365012677171209
sI122
F6.643856189774725
sI123
F6.643856189774725
sI124
F6.643856189774725
sI125
F4.643856189774724
sI126
F6.643856189774725
sI127
F5.643856189774724
sI128
F4.321928094887363
sI129
F6.643856189774725
sI130
F4.058893689053568
sI131
F4.058893689053568
sI132
F6.643856189774725
sI133
F3.0588936890535687
sI134
F6.643856189774725
sI135
F6.643856189774725
sI136
F2.9434164716336326
sI137
F6.643856189774725
sI138
F6.643856189774725
sI139
F6.643856189774725
sI140
F6.643856189774725
sI141
F2.5563933485243857
sI142
F6.643856189774725
sI143
F6.643856189774725
sI144
F6.643856189774725
sI145
F3.6438561897747253
sI146
F6.643856189774725
sI147
F0.6214883767462703
sI148
F1.4739311883324122
sI149
F0.6665762662748081
sI150
F1.1844245711374277
sI151
F0.9714308478032291
sI152
F6.643856189774725
sI153
F5.643856189774724
sI154
F6.643856189774725
sI155
F0.6214883767462703
sI156
F6.643856189774725
sI157
F6.643856189774725
sI158
F6.643856189774725
sI159
F6.643856189774725
sI160
F5.643856189774724
sI161
F4.321928094887363
sI162
F6.643856189774725
sI163
F5.643856189774724
sI164
F6.643856189774725
sI165
F2.5563933485243857
sI166
F5.643856189774724
sI167
F6.643856189774725
sI168
F3.3219280948873626
sI169
F4.643856189774724
sI170
F6.643856189774725
sI171
F2.5563933485243857
sI172
F2.0588936890535687
sI173
F6.643856189774725
sI174
F6.643856189774725
sI175
F2.321928094887362
sI176
F4.321928094887363
sI177
F4.058893689053568
sI178
F5.058893689053569
sI179
F6.643856189774725
sI180
F3.6438561897747253
sI181
F6.643856189774725
sI182
F6.643856189774725
sI183
F6.643856189774725
sI184
F6.643856189774725
sI185
F3.473931188332412
sI186
F2.321928094887362
sI187
F2.1202942337177118
sI188
F4.058893689053568
sI189
F6.643856189774725
sI190
F6.643856189774725
sI191
F5.643856189774724
sI192
F4.643856189774724
sI193
F6.643856189774725
sI194
F5.058893689053569
sI195
F4.321928094887363
sI196
F1.15200309344505
sI197
F4.058893689053568
sI198
F1.1202942337177118
sI199
F6.643856189774725
sI200
F1.1202942337177118
sI201
F1.0892673380970874
sI202
F2.643856189774725
sI203
F2.9434164716336326
sI204
F1.0892673380970874
sI205
F4.058893689053568
sI206
F2.9434164716336326
sI207
F6.643856189774725
sI208
F6.643856189774725
sI209
F5.643856189774724
sI210
F2.8365012677171206
sI211
F2.9434164716336326
sI212
F5.643856189774724
sI213
F5.643856189774724
sI214
F5.643856189774724
sI215
F5.058893689053569
sI216
F5.643856189774724
sI217
F4.643856189774724
sI218
F5.643856189774724
sI219
F5.643856189774724
sI220
F5.643856189774724
sI221
F2.0588936890535687
sI222
F5.643856189774724
sI223
F4.058893689053568
sI224
F3.8365012677171206
sI225
F3.473931188332412
sI226
F1.8889686876112561
sI227
F5.643856189774724
sI228
F5.643856189774724
sI229
F4.321928094887363
sI230
F5.643856189774724
sI231
F3.184424571137428
sI232
F6.643856189774725
sI233
F6.643856189774725
sI234
F6.643856189774725
sI235
F4.058893689053568
sI236
F5.643856189774724
sI237
F6.643856189774725
sI238
F6.643856189774725
sI239
F3.473931188332412
sI240
F6.643856189774725
sI241
F5.058893689053569
sI242
F5.643856189774724
sI243
F6.643856189774725
sI244
F5.058893689053569
sI245
F5.643856189774724
sI246
F5.643856189774724
sI247
F5.643856189774724
sI248
F5.643856189774724
sI249
F5.643856189774724
sI250
F5.643856189774724
sI251
F3.473931188332412
sI252
F5.058893689053569
sI253
F5.643856189774724
sI254
F4.321928094887363
sI255
F5.058893689053569
sI256
F6.643856189774725
sI257
F5.643856189774724
sI258
F6.643856189774725
sI259
F5.643856189774724
sI260
F5.643856189774724
sI261
F6.643856189774725
sI262
F4.321928094887363
sI263
F4.058893689053568
sI264
F6.643856189774725
sI265
F5.643856189774724
sI266
F5.643856189774724
sI267
F5.643856189774724
sI268
F6.643856189774725
sI269
F5.058893689053569
sI270
F3.473931188332412
sI271
F3.8365012677171206
sI272
F4.643856189774724
sI273
F6.643856189774725
sI274
F6.643856189774725
sI275
F2.2515387669959646
sI276
F6.643856189774725
sI277
F6.643856189774725
sI278
F3.473931188332412
sI279
F6.643856189774725
sI280
F4.321928094887363
sI281
F6.643856189774725
sI282
F6.643856189774725
sI283
F5.058893689053569
sI284
F3.8365012677171206
sI285
F2.473931188332412
sI286
F6.643856189774725
sI287
F6.643856189774725
sI288
F6.643856189774725
sI289
F6.643856189774725
sI290
F5.643856189774724
sI291
F2.643856189774725
sI292
F6.643856189774725
sI293
F6.643856189774725
sI294
F3.184424571137428
sI295
F4.643856189774724
sI296
F6.643856189774725
sI297
F5.058893689053569
sI298
F6.643856189774725
sI299
F6.643856189774725
sI300
F6.643856189774725
sI301
F6.643856189774725
sI302
F4.643856189774724
sI303
F6.643856189774725
sI304
F6.643856189774725
sI305
F6.643856189774725
sI306
F6.643856189774725
sI307
F5.643856189774724
sI308
F5.643856189774724
sI309
F6.643856189774725
sI310
F6.643856189774725
sI311
F6.643856189774725
sI312
F3.8365012677171206
sI313
F6.643856189774725
sI314
F5.643856189774724
sI315
F6.643856189774725
sI316
F6.643856189774725
sI317
F6.643856189774725
sI318
F6.643856189774725
sI319
F3.3219280948873626
sI320
F3.8365012677171206
sI321
F6.643856189774725
sI322
F6.643856189774725
sI323
F6.643856189774725
sI324
F5.643856189774724
sI325
F6.643856189774725
sI326
F6.643856189774725
sI327
F5.643856189774724
sI328
F6.643856189774725
sI329
F5.643856189774724
sI330
F5.058893689053569
sI331
F6.643856189774725
sI332
F4.643856189774724
sI333
F5.058893689053569
sI334
F5.643856189774724
sI335
F6.643856189774725
sI336
F4.321928094887363
sI337
F6.643856189774725
sI338
F6.643856189774725
sI339
F6.643856189774725
sI340
F5.058893689053569
sI341
F3.184424571137428
sI342
F6.643856189774725
sI343
F1.9434164716336328
sI344
F6.643856189774725
sI345
F6.643856189774725
sI346
F6.643856189774725
sI347
F6.643856189774725
sI348
F5.643856189774724
sI349
F6.643856189774725
sI350
F6.643856189774725
sI351
F4.643856189774724
sI352
F5.643856189774724
sI353
F1.6896598793878495
sI354
F3.8365012677171206
sI355
F2.1202942337177118
sI356
F5.643856189774724
sI357
F6.643856189774725
sI358
F6.643856189774725
sI359
F5.643856189774724
sI360
F5.643856189774724
sI361
F3.184424571137428
sI362
F6.643856189774725
sI363
F2.643856189774725
sI364
F5.643856189774724
sI365
F6.643856189774725
sI366
F6.643856189774725
sI367
F3.8365012677171206
sI368
F6.643856189774725
sI369
F2.9434164716336326
sI370
F6.643856189774725
sI371
F6.643856189774725
sI372
F5.058893689053569
sI373
F6.643856189774725
sI374
F6.643856189774725
sI375
F6.643856189774725
sI376
F6.643856189774725
sI377
F6.643856189774725
sI378
F6.643856189774725
sI379
F6.643856189774725
sI380
F6.643856189774725
sI381
F5.643856189774724
sI382
F6.643856189774725
sI383
F6.643856189774725
sI384
F5.643856189774724
sI385
F6.643856189774725
sI386
F6.643856189774725
sI387
F3.6438561897747253
sI388
F6.643856189774725
sI389
F6.643856189774725
sI390
F5.643856189774724
sI391
F6.643856189774725
sI392
F5.643856189774724
sI393
F6.643856189774725
sI394
F6.643856189774725
sI395
F4.058893689053568
sI396
F6.643856189774725
sI397
F6.643856189774725
sI398
F6.643856189774725
sI399
F6.643856189774725
sI400
F6.643856189774725
sI401
F6.643856189774725
sI402
F4.058893689053568
sI403
F3.3219280948873626
sI404
F5.058893689053569
sI405
F6.643856189774725
sI406
F6.643856189774725
sI407
F6.643856189774725
sI408
F6.643856189774725
sI409
F5.058893689053569
sI410
F6.643856189774725
sI411
F3.0588936890535687
sI412
F5.058893689053569
sI413
F5.058893689053569
sI414
F6.643856189774725
sI415
F3.8365012677171206
sI416
F6.643856189774725
sI417
F6.643856189774725
sI418
F6.643856189774725
sI419
F4.643856189774724
sI420
F6.643856189774725
sI421
F6.643856189774725
sI422
F2.8365012677171206
sI423
F6.643856189774725
sI424
F6.643856189774725
sI425
F6.643856189774725
sI426
F6.643856189774725
sI427
F5.058893689053569
sI428
F4.643856189774724
sI429
F6.643856189774725
sI430
F6.643856189774725
sI431
F3.473931188332412
sI432
F6.643856189774725
sI433
F5.643856189774724
sI434
F4.643856189774724
sI435
F5.058893689053569
sI436
F5.643856189774724
sI437
F3.8365012677171206
sI438
F6.643856189774725
sI439
F6.643856189774725
sI440
F4.058893689053568
sI441
F6.643856189774725
sI442
F6.643856189774725
sI443
F3.473931188332412
sI444
F4.643856189774724
sI445
F6.643856189774725
sI446
F4.058893689053568
sI447
F6.643856189774725
sI448
F3.3219280948873626
sI449
F6.643856189774725
sI450
F6.643856189774725
sI451
F6.643856189774725
sI452
F5.058893689053569
sI453
F6.643856189774725
sI454
F5.643856189774724
sI455
F6.643856189774725
sI456
F4.058893689053568
sI457
F4.643856189774724
sI458
F6.643856189774725
sI459
F6.643856189774725
sI460
F6.643856189774725
sI461
F6.643856189774725
sI462
F5.058893689053569
sI463
F6.643856189774725
sI464
F6.643856189774725
sI465
F5.643856189774724
sI466
F6.643856189774725
sI467
F5.643856189774724
sI468
F6.643856189774725
sI469
F5.643856189774724
sI470
F6.643856189774725
sI471
F6.643856189774725
sI472
F6.643856189774725
sI473
F6.643856189774725
sI474
F6.643856189774725
sI475
F6.643856189774725
sI476
F6.643856189774725
sI477
F5.643856189774724
sI478
F5.643856189774724
sI479
F4.321928094887363
sI480
F6.643856189774725
sI481
F6.643856189774725
sI482
F6.643856189774725
sI483
F6.643856189774725
sI484
F6.643856189774725
sI485
F6.643856189774725
sI486
F6.643856189774725
sI487
F3.8365012677171206
sI488
F6.643856189774725
sI489
F6.643856189774725
sI490
F5.643856189774724
sI491
F6.643856189774725
sI492
F6.643856189774725
sI493
F5.058893689053569
sI494
F5.058893689053569
sI495
F6.643856189774725
sI496
F5.643856189774724
sI497
F6.643856189774725
sI498
F5.643856189774724
sI499
F6.643856189774725
sI500
F6.643856189774725
sI501
F5.058893689053569
sI502
F5.643856189774724
sI503
F6.643856189774725
sI504
F5.643856189774724
sI505
F6.643856189774725
sI506
F6.643856189774725
sI507
F6.643856189774725
sI508
F6.643856189774725
sI509
F6.643856189774725
sI510
F5.643856189774724
sI511
F6.643856189774725
sI512
F6.643856189774725
sI513
F6.643856189774725
sI514
F5.643856189774724
sI515
F6.643856189774725
sI516
F5.643856189774724
sI517
F5.058893689053569
sI518
F6.643856189774725
sI519
F4.058893689053568
sI520
F6.643856189774725
sI521
F6.643856189774725
sI522
F6.643856189774725
sI523
F6.643856189774725
sI524
F5.058893689053569
sI525
F6.643856189774725
sI526
F3.6438561897747253
sI527
F6.643856189774725
sI528
F5.643856189774724
sI529
F5.643856189774724
sI530
F5.058893689053569
sI531
F6.643856189774725
sI532
F6.643856189774725
sI533
F4.058893689053568
sI534
F6.643856189774725
sI535
F5.058893689053569
sI536
F6.643856189774725
sI537
F6.643856189774725
sI538
F5.643856189774724
sI539
F6.643856189774725
sI540
F6.643856189774725
sI541
F4.643856189774724
sI542
F6.643856189774725
sI543
F4.058893689053568
sI544
F4.643856189774724
sI545
F6.643856189774725
sI546
F5.643856189774724
sI547
F6.643856189774725
sI548
F6.643856189774725
sI549
F6.643856189774725
sI550
F6.643856189774725
sI551
F6.643856189774725
sI552
F6.643856189774725
sI553
F6.643856189774725
sI554
F5.058893689053569
sI555
F6.643856189774725
sI556
F6.643856189774725
sI557
F6.643856189774725
sI558
F6.643856189774725
sI559
F6.643856189774725
sI560
F6.643856189774725
sI561
F4.643856189774724
sI562
F6.643856189774725
sI563
F5.058893689053569
sI564
F6.643856189774725
sI565
F6.643856189774725
sI566
F5.643856189774724
sI567
F6.643856189774725
sI568
F6.643856189774725
sI569
F6.643856189774725
sI570
F4.643856189774724
sI571
F2.9434164716336326
sI572
F6.643856189774725
sI573
F6.643856189774725
sI574
F6.643856189774725
sI575
F6.643856189774725
sI576
F6.643856189774725
sI577
F6.643856189774725
sI578
F6.643856189774725
sI579
F6.643856189774725
sI580
F6.643856189774725
sI581
F3.8365012677171206
sI582
F6.643856189774725
sI583
F6.643856189774725
sI584
F6.643856189774725
sI585
F5.643856189774724
sI586
F6.643856189774725
sI587
F6.643856189774725
sI588
F4.321928094887363
sI589
F6.643856189774725
sI590
F6.643856189774725
sI591
F6.643856189774725
sI592
F6.643856189774725
sI593
F6.643856189774725
sI594
F6.643856189774725
sI595
F6.643856189774725
sI596
F6.643856189774725
sI597
F5.058893689053569
sI598
F6.643856189774725
sI599
F6.643856189774725
sI600
F6.643856189774725
sI601
F4.321928094887363
sI602
F6.643856189774725
sI603
F6.643856189774725
sI604
F6.643856189774725
sI605
F5.643856189774724
sI606
F6.643856189774725
sI607
F6.643856189774725
sI608
F6.643856189774725
sI609
F5.643856189774724
sI610
F3.0588936890535687
sI611
F6.643856189774725
sI612
F6.643856189774725
sI613
F4.643856189774724
sI614
F6.643856189774725
sI615
F6.643856189774725
sI616
F6.643856189774725
sI617
F6.643856189774725
sI618
F6.643856189774725
sI619
F5.643856189774724
sI620
F6.643856189774725
sI621
F5.058893689053569
sI622
F6.643856189774725
sI623
F6.643856189774725
sI624
F6.643856189774725
sI625
F6.643856189774725
sI626
F6.643856189774725
sI627
F6.643856189774725
sI628
F4.321928094887363
sI629
F6.643856189774725
sI630
F6.643856189774725
sI631
F5.643856189774724
sI632
F4.643856189774724
sI633
F6.643856189774725
sI634
F6.643856189774725
sI635
F6.643856189774725
sI636
F6.643856189774725
sI637
F6.643856189774725
sI638
F6.643856189774725
sI639
F6.643856189774725
sI640
F5.643856189774724
sI641
F4.643856189774724
sI642
F5.058893689053569
sI643
F4.321928094887363
sI644
F6.643856189774725
sI645
F6.643856189774725
sI646
F6.643856189774725
sI647
F5.643856189774724
sI648
F4.643856189774724
sI649
F6.643856189774725
sI650
F6.643856189774725
sI651
F6.643856189774725
sI652
F6.643856189774725
sI653
F6.643856189774725
sI654
F6.643856189774725
sI655
F6.643856189774725
sI656
F6.643856189774725
sI657
F6.643856189774725
sI658
F6.643856189774725
sI659
F6.643856189774725
sI660
F6.643856189774725
sI661
F6.643856189774725
sI662
F6.643856189774725
sI663
F6.643856189774725
sI664
F6.643856189774725
sI665
F4.643856189774724
sI666
F6.643856189774725
sI667
F6.643856189774725
sI668
F6.643856189774725
sI669
F6.643856189774725
sI670
F6.643856189774725
sI671
F6.643856189774725
sI672
F6.643856189774725
sI673
F5.058893689053569
sI674
F6.643856189774725
sI675
F6.643856189774725
sI676
F5.058893689053569
sI677
F6.643856189774725
sI678
F6.643856189774725
sI679
F5.643856189774724
sI680
F5.058893689053569
sI681
F5.058893689053569
sI682
F6.643856189774725
sI683
F6.643856189774725
sI684
F5.643856189774724
sI685
F5.643856189774724
sI686
F5.643856189774724
sI687
F6.643856189774725
sI688
F3.6438561897747253
sI689
F6.643856189774725
sI690
F6.643856189774725
sI691
F6.643856189774725
sI692
F5.643856189774724
sI693
F6.643856189774725
sI694
F6.643856189774725
sI695
F6.643856189774725
sI696
F6.643856189774725
sI697
F6.643856189774725
sI698
F6.643856189774725
sI699
F6.643856189774725
sI700
F6.643856189774725
sI701
F6.643856189774725
sI702
F5.643856189774724
sI703
F5.643856189774724
sI704
F6.643856189774725
sI705
F6.643856189774725
sI706
F4.643856189774724
sI707
F5.643856189774724
sI708
F5.643856189774724
sI709
F6.643856189774725
sI710
F6.643856189774725
sI711
F6.643856189774725
sI712
F5.643856189774724
sI713
F6.643856189774725
sI714
F5.643856189774724
sI715
F5.058893689053569
sI716
F6.643856189774725
sI717
F6.643856189774725
sI718
F6.643856189774725
sI719
F6.643856189774725
sI720
F6.643856189774725
sI721
F6.643856189774725
sI722
F5.643856189774724
sI723
F6.643856189774725
sI724
F6.643856189774725
sI725
F6.643856189774725
sI726
F5.643856189774724
sI727
F6.643856189774725
sI728
F6.643856189774725
sI729
F5.643856189774724
sI730
F6.643856189774725
sI731
F5.643856189774724
sI732
F6.643856189774725
sI733
F6.643856189774725
sI734
F6.643856189774725
sI735
F5.058893689053569
sI736
F6.643856189774725
sI737
F6.643856189774725
sI738
F6.643856189774725
sI739
F5.643856189774724
sI740
F6.643856189774725
sI741
F3.8365012677171206
sI742
F5.058893689053569
sI743
F6.643856189774725
sI744
F4.643856189774724
sI745
F5.643856189774724
sI746
F3.473931188332412
sI747
F6.643856189774725
sI748
F5.643856189774724
sI749
F6.643856189774725
sI750
F5.643856189774724
sI751
F5.643856189774724
sI752
F6.643856189774725
sI753
F5.058893689053569
sI754
F4.643856189774724
sI755
F5.643856189774724
sI756
F5.643856189774724
sI757
F5.643856189774724
sI758
F5.643856189774724
sI759
F6.643856189774725
sI760
F6.643856189774725
sI761
F5.643856189774724
sI762
F6.643856189774725
sI763
F5.643856189774724
sI764
F6.643856189774725
sI765
F6.643856189774725
sI766
F5.058893689053569
sI767
F6.643856189774725
sI768
F6.643856189774725
sI769
F6.643856189774725
sI770
F5.643856189774724
sI771
F6.643856189774725
sI772
F5.643856189774724
sI773
F6.643856189774725
sI774
F5.058893689053569
sI775
F6.643856189774725
sI776
F6.643856189774725
sI777
F6.643856189774725
sI778
F6.643856189774725
sI779
F4.321928094887363
sI780
F6.643856189774725
sI781
F6.643856189774725
sI782
F6.643856189774725
sI783
F5.643856189774724
sI784
F6.643856189774725
sI785
F5.643856189774724
sI786
F5.643856189774724
sI787
F6.643856189774725
sI788
F5.058893689053569
sI789
F4.321928094887363
sI790
F6.643856189774725
sI791
F6.643856189774725
sI792
F6.643856189774725
sI793
F6.643856189774725
sI794
F6.643856189774725
sI795
F6.643856189774725
sI796
F6.643856189774725
sI797
F6.643856189774725
sI798
F5.643856189774724
sI799
F6.643856189774725
sI800
F5.643856189774724
sI801
F6.643856189774725
sI802
F5.643856189774724
sI803
F6.643856189774725
sI804
F6.643856189774725
sI805
F6.643856189774725
sI806
F6.643856189774725
sI807
F6.643856189774725
sI808
F6.643856189774725
sI809
F6.643856189774725
sI810
F6.643856189774725
sI811
F6.643856189774725
sI812
F6.643856189774725
sI813
F6.643856189774725
sI814
F5.643856189774724
sI815
F4.643856189774724
sI816
F6.643856189774725
sI817
F6.643856189774725
sI818
F6.643856189774725
sI819
F6.643856189774725
sI820
F6.643856189774725
sI821
F6.643856189774725
sI822
F5.058893689053569
sI823
F4.643856189774724
sI824
F5.058893689053569
sI825
F6.643856189774725
sI826
F5.058893689053569
sI827
F5.643856189774724
sI828
F6.643856189774725
sI829
F6.643856189774725
sI830
F6.643856189774725
sI831
F6.643856189774725
sI832
F6.643856189774725
sI833
F6.643856189774725
sI834
F6.643856189774725
sI835
F6.643856189774725
sI836
F6.643856189774725
sI837
F4.058893689053568
sI838
F6.643856189774725
sI839
F6.643856189774725
sI840
F6.643856189774725
sI841
F6.643856189774725
sI842
F6.643856189774725
sI843
F5.643856189774724
sI844
F6.643856189774725
sI845
F6.643856189774725
sI846
F6.643856189774725
sI847
F6.643856189774725
sI848
F5.643856189774724
sI849
F6.643856189774725
sI850
F6.643856189774725
sI851
F6.643856189774725
sI852
F6.643856189774725
sI853
F4.643856189774724
sI854
F5.643856189774724
sI855
F4.643856189774724
sI856
F6.643856189774725
sI857
F6.643856189774725
sI858
F6.643856189774725
sI859
F6.643856189774725
sI860
F5.643856189774724
sI861
F6.643856189774725
sI862
F5.643856189774724
sI863
F6.643856189774725
sI864
F5.058893689053569
sI865
F6.643856189774725
sI866
F5.058893689053569
sI867
F5.058893689053569
sI868
F6.643856189774725
sI869
F6.643856189774725
sI870
F6.643856189774725
sI871
F6.643856189774725
sI872
F6.643856189774725
sI873
F6.643856189774725
sI874
F6.643856189774725
sI875
F6.643856189774725
sI876
F6.643856189774725
sI877
F6.643856189774725
sI878
F5.643856189774724
sI879
F6.643856189774725
sI880
F6.643856189774725
sI881
F6.643856189774725
sI882
F6.643856189774725
sI883
F6.643856189774725
sI884
F6.643856189774725
sI885
F6.643856189774725
sI886
F6.643856189774725
sI887
F6.643856189774725
sI888
F6.643856189774725
sI889
F6.643856189774725
sI890
F5.643856189774724
sI891
F6.643856189774725
sI892
F6.643856189774725
sI893
F5.643856189774724
sI894
F6.643856189774725
sI895
F6.643856189774725
sI896
F3.0588936890535687
sI897
F6.643856189774725
sI898
F5.643856189774724
sI899
F5.643856189774724
sI900
F6.643856189774725
sI901
F5.058893689053569
sI902
F6.643856189774725
sI903
F6.643856189774725
sI904
F5.643856189774724
sI905
F6.643856189774725
sI906
F5.643856189774724
sI907
F5.643856189774724
sI908
F6.643856189774725
sI909
F5.058893689053569
sI910
F6.643856189774725
sI911
F6.643856189774725
sI912
F6.643856189774725
sI913
F6.643856189774725
sI914
F6.643856189774725
sI915
F6.643856189774725
sI916
F6.643856189774725
sI917
F6.643856189774725
sI918
F6.643856189774725
sI919
F6.643856189774725
sI920
F6.643856189774725
sI921
F6.643856189774725
sI922
F4.643856189774724
sI923
F6.643856189774725
sI924
F6.643856189774725
sI925
F6.643856189774725
sI926
F6.643856189774725
sI927
F6.643856189774725
sI928
F6.643856189774725
sI929
F6.643856189774725
sI930
F6.643856189774725
sI931
F6.643856189774725
sI932
F6.643856189774725
sI933
F5.643856189774724
sI934
F6.643856189774725
sI935
F5.058893689053569
sI936
F4.058893689053568
sI937
F6.643856189774725
sI938
F6.643856189774725
sI939
F6.643856189774725
sI940
F6.643856189774725
sI941
F6.643856189774725
sI942
F6.643856189774725
sI943
F6.643856189774725
sI944
F6.643856189774725
sI945
F6.643856189774725
sI946
F6.643856189774725
sI947
F6.643856189774725
sI948
F6.643856189774725
sI949
F6.643856189774725
sI950
F6.643856189774725
sI951
F6.643856189774725
sI952
F5.643856189774724
sI953
F6.643856189774725
sI954
F6.643856189774725
sI955
F5.643856189774724
sI956
F6.643856189774725
sI957
F6.643856189774725
sI958
F5.643856189774724
sI959
F6.643856189774725
sI960
F6.643856189774725
sI961
F6.643856189774725
sI962
F6.643856189774725
sI963
F6.643856189774725
sI964
F6.643856189774725
sI965
F6.643856189774725
sI966
F6.643856189774725
sI967
F6.643856189774725
sI968
F6.643856189774725
sI969
F6.643856189774725
sI970
F6.643856189774725
sI971
F6.643856189774725
sI972
F6.643856189774725
sI973
F6.643856189774725
sI974
F4.643856189774724
sI975
F6.643856189774725
sI976
F6.643856189774725
sI977
F6.643856189774725
sI978
F6.643856189774725
sI979
F6.643856189774725
sI980
F6.643856189774725
sI981
F6.643856189774725
sI982
F5.643856189774724
sI983
F5.643856189774724
sI984
F6.643856189774725
sI985
F6.643856189774725
sI986
F6.643856189774725
sI987
F6.643856189774725
sI988
F6.643856189774725
sI989
F6.643856189774725
sI990
F6.643856189774725
sI991
F6.643856189774725
sI992
F5.058893689053569
sI993
F6.643856189774725
sI994
F6.643856189774725
sI995
F6.643856189774725
sI996
F5.643856189774724
sI997
F6.643856189774725
sI998
F6.643856189774725
sI999
F6.643856189774725
sI1000
F6.643856189774725
sI1001
F6.643856189774725
sI1002
F5.643856189774724
sI1003
F5.643856189774724
sI1004
F6.643856189774725
sI1005
F5.643856189774724
sI1006
F5.643856189774724
sI1007
F6.643856189774725
sI1008
F6.643856189774725
sI1009
F6.643856189774725
sI1010
F6.643856189774725
sI1011
F6.643856189774725
sI1012
F6.643856189774725
sI1013
F6.643856189774725
sI1014
F6.643856189774725
sI1015
F6.643856189774725
sI1016
F6.643856189774725
sI1017
F6.643856189774725
sI1018
F6.643856189774725
sI1019
F6.643856189774725
sI1020
F5.643856189774724
sI1021
F6.643856189774725
sI1022
F6.643856189774725
sI1023
F6.643856189774725
sI1024
F6.643856189774725
sI1025
F6.643856189774725
sI1026
F6.643856189774725
sI1027
F6.643856189774725
sI1028
F6.643856189774725
sI1029
F6.643856189774725
sI1030
F6.643856189774725
sI1031
F5.643856189774724
sI1032
F6.643856189774725
sI1033
F6.643856189774725
sI1034
F6.643856189774725
sI1035
F5.643856189774724
sI1036
F6.643856189774725
sI1037
F6.643856189774725
sI1038
F6.643856189774725
sI1039
F5.643856189774724
sI1040
F6.643856189774725
sI1041
F6.643856189774725
sI1042
F6.643856189774725
sI1043
F6.643856189774725
sI1044
F6.643856189774725
sI1045
F6.643856189774725
sI1046
F6.643856189774725
sI1047
F6.643856189774725
sI1048
F5.643856189774724
sI1049
F6.643856189774725
sI1050
F5.058893689053569
sI1051
F6.643856189774725
sI1052
F6.643856189774725
sI1053
F6.643856189774725
sI1054
F5.643856189774724
sI1055
F6.643856189774725
sI1056
F5.643856189774724
sI1057
F5.643856189774724
sI1058
F6.643856189774725
sI1059
F6.643856189774725
sI1060
F6.643856189774725
sI1061
F6.643856189774725
sI1062
F5.643856189774724
sI1063
F6.643856189774725
sI1064
F6.643856189774725
sI1065
F6.643856189774725
sI1066
F6.643856189774725
sI1067
F6.643856189774725
sI1068
F6.643856189774725
sI1069
F6.643856189774725
sI1070
F6.643856189774725
sI1071
F5.643856189774724
sI1072
F6.643856189774725
sI1073
F6.643856189774725
sI1074
F5.643856189774724
sI1075
F6.643856189774725
sI1076
F5.643856189774724
sI1077
F5.643856189774724
sI1078
F5.643856189774724
sI1079
F6.643856189774725
sI1080
F6.643856189774725
sI1081
F6.643856189774725
sI1082
F6.643856189774725
sI1083
F6.643856189774725
sI1084
F6.643856189774725
sI1085
F5.643856189774724
sI1086
F5.643856189774724
sI1087
F5.643856189774724
sI1088
F6.643856189774725
sI1089
F5.643856189774724
sI1090
F6.643856189774725
sI1091
F6.643856189774725
sI1092
F6.643856189774725
sI1093
F6.643856189774725
sI1094
F6.643856189774725
sI1095
F6.643856189774725
sI1096
F6.643856189774725
sI1097
F6.643856189774725
sI1098
F6.643856189774725
sI1099
F5.643856189774724
sI1100
F6.643856189774725
sI1101
F6.643856189774725
sI1102
F6.643856189774725
sI1103
F6.643856189774725
sI1104
F5.643856189774724
sI1105
F6.643856189774725
sI1106
F5.643856189774724
sI1107
F6.643856189774725
sI1108
F5.058893689053569
sI1109
F6.643856189774725
sI1110
F6.643856189774725
sI1111
F6.643856189774725
sI1112
F6.643856189774725
sI1113
F6.643856189774725
sI1114
F5.643856189774724
sI1115
F6.643856189774725
sI1116
F6.643856189774725
sI1117
F6.643856189774725
sI1118
F6.643856189774725
sI1119
F6.643856189774725
sI1120
F6.643856189774725
sI1121
F6.643856189774725
sI1122
F6.643856189774725
sI1123
F6.643856189774725
sI1124
F6.643856189774725
sI1125
F6.643856189774725
sI1126
F6.643856189774725
sI1127
F6.643856189774725
sI1128
F6.643856189774725
sI1129
F6.643856189774725
sI1130
F6.643856189774725
sI1131
F6.643856189774725
sI1132
F6.643856189774725
sI1133
F6.643856189774725
sI1134
F6.643856189774725
sI1135
F5.058893689053569
sI1136
F5.058893689053569
sI1137
F6.643856189774725
sI1138
F6.643856189774725
sI1139
F5.643856189774724
sI1140
F6.643856189774725
sI1141
F5.643856189774724
sI1142
F5.643856189774724
sI1143
F6.643856189774725
sI1144
F5.643856189774724
sI1145
F6.643856189774725
sI1146
F6.643856189774725
sI1147
F6.643856189774725
sI1148
F6.643856189774725
sI1149
F6.643856189774725
sI1150
F6.643856189774725
sI1151
F5.643856189774724
sI1152
F6.643856189774725
sI1153
F6.643856189774725
sI1154
F6.643856189774725
sI1155
F4.058893689053568
sI1156
F6.643856189774725
sI1157
F6.643856189774725
sI1158
F6.643856189774725
sI1159
F5.643856189774724
sI1160
F6.643856189774725
sI1161
F6.643856189774725
sI1162
F6.643856189774725
sI1163
F6.643856189774725
sI1164
F6.643856189774725
sI1165
F6.643856189774725
sI1166
F6.643856189774725
sI1167
F5.643856189774724
sI1168
F6.643856189774725
sI1169
F6.643856189774725
sI1170
F6.643856189774725
sI1171
F6.643856189774725
sI1172
F6.643856189774725
sI1173
F6.643856189774725
sI1174
F6.643856189774725
sI1175
F6.643856189774725
sI1176
F5.643856189774724
sI1177
F6.643856189774725
sI1178
F5.643856189774724
sI1179
F6.643856189774725
sI1180
F6.643856189774725
sI1181
F6.643856189774725
sI1182
F6.643856189774725
sI1183
F6.643856189774725
sI1184
F6.643856189774725
sI1185
F6.643856189774725
sI1186
F6.643856189774725
sI1187
F6.643856189774725
sI1188
F4.643856189774724
sI1189
F6.643856189774725
sI1190
F6.643856189774725
sI1191
F6.643856189774725
sI1192
F6.643856189774725
sI1193
F6.643856189774725
sI1194
F6.643856189774725
sI1195
F6.643856189774725
sI1196
F5.058893689053569
sI1197
F6.643856189774725
sI1198
F6.643856189774725
sI1199
F6.643856189774725
sI1200
F6.643856189774725
sI1201
F6.643856189774725
sI1202
F6.643856189774725
sI1203
F6.643856189774725
sI1204
F4.321928094887363
sI1205
F6.643856189774725
sI1206
F6.643856189774725
sI1207
F6.643856189774725
sI1208
F5.643856189774724
sI1209
F6.643856189774725
sI1210
F5.643856189774724
sI1211
F6.643856189774725
sI1212
F6.643856189774725
sI1213
F5.643856189774724
sI1214
F6.643856189774725
sI1215
F6.643856189774725
sI1216
F6.643856189774725
sI1217
F5.643856189774724
sI1218
F6.643856189774725
sI1219
F6.643856189774725
sI1220
F6.643856189774725
sI1221
F6.643856189774725
sI1222
F6.643856189774725
sI1223
F5.643856189774724
sI1224
F6.643856189774725
sI1225
F6.643856189774725
sI1226
F6.643856189774725
sI1227
F6.643856189774725
sI1228
F6.643856189774725
sI1229
F6.643856189774725
sI1230
F6.643856189774725
sI1231
F6.643856189774725
sI1232
F6.643856189774725
sI1233
F6.643856189774725
sI1234
F6.643856189774725
sI1235
F6.643856189774725
sI1236
F6.643856189774725
sI1237
F5.643856189774724
sI1238
F5.643856189774724
sI1239
F5.643856189774724
sI1240
F5.643856189774724
sI1241
F6.643856189774725
sI1242
F6.643856189774725
sI1243
F5.643856189774724
sI1244
F6.643856189774725
sI1245
F6.643856189774725
sI1246
F6.643856189774725
sI1247
F5.643856189774724
sI1248
F6.643856189774725
sI1249
F5.643856189774724
sI1250
F6.643856189774725
sI1251
F6.643856189774725
sI1252
F6.643856189774725
sI1253
F6.643856189774725
sI1254
F6.643856189774725
sI1255
F6.643856189774725
sI1256
F6.643856189774725
sI1257
F6.643856189774725
sI1258
F5.058893689053569
sI1259
F5.643856189774724
sI1260
F6.643856189774725
sI1261
F6.643856189774725
sI1262
F6.643856189774725
sI1263
F6.643856189774725
sI1264
F6.643856189774725
sI1265
F6.643856189774725
sI1266
F6.643856189774725
sI1267
F6.643856189774725
sI1268
F6.643856189774725
sI1269
F6.643856189774725
sI1270
F6.643856189774725
sI1271
F6.643856189774725
sI1272
F6.643856189774725
sI1273
F6.643856189774725
sI1274
F6.643856189774725
sI1275
F6.643856189774725
sI1276
F6.643856189774725
sI1277
F5.058893689053569
sI1278
F4.643856189774724
sI1279
F6.643856189774725
sI1280
F6.643856189774725
sI1281
F6.643856189774725
sI1282
F6.643856189774725
sI1283
F5.643856189774724
sI1284
F6.643856189774725
sI1285
F6.643856189774725
sI1286
F6.643856189774725
sI1287
F6.643856189774725
sI1288
F6.643856189774725
sI1289
F6.643856189774725
sI1290
F6.643856189774725
sI1291
F6.643856189774725
sI1292
F6.643856189774725
sI1293
F5.058893689053569
sI1294
F6.643856189774725
sI1295
F5.643856189774724
sI1296
F6.643856189774725
sI1297
F6.643856189774725
sI1298
F6.643856189774725
sI1299
F6.643856189774725
sI1300
F6.643856189774725
sI1301
F5.643856189774724
sI1302
F6.643856189774725
sI1303
F5.643856189774724
sI1304
F6.643856189774725
sI1305
F6.643856189774725
sI1306
F5.643856189774724
sI1307
F6.643856189774725
sI1308
F6.643856189774725
sI1309
F5.643856189774724
sI1310
F6.643856189774725
sI1311
F6.643856189774725
sI1312
F6.643856189774725
sI1313
F6.643856189774725
sI1314
F6.643856189774725
sI1315
F6.643856189774725
sI1316
F6.643856189774725
sI1317
F6.643856189774725
sI1318
F6.643856189774725
sI1319
F6.643856189774725
sI1320
F6.643856189774725
sI1321
F6.643856189774725
sI1322
F6.643856189774725
sI1323
F6.643856189774725
sI1324
F6.643856189774725
sI1325
F6.643856189774725
sI1326
F5.643856189774724
sI1327
F6.643856189774725
sI1328
F6.643856189774725
sI1329
F6.643856189774725
sI1330
F6.643856189774725
sI1331
F6.643856189774725
sI1332
F6.643856189774725
sI1333
F6.643856189774725
sI1334
F6.643856189774725
sI1335
F6.643856189774725
sI1336
F6.643856189774725
sI1337
F6.643856189774725
sI1338
F6.643856189774725
sI1339
F6.643856189774725
sI1340
F6.643856189774725
sI1341
F6.643856189774725
sI1342
F6.643856189774725
sI1343
F6.643856189774725
sI1344
F6.643856189774725
sI1345
F6.643856189774725
sI1346
F6.643856189774725
sI1347
F6.643856189774725
sI1348
F6.643856189774725
sI1349
F6.643856189774725
sI1350
F6.643856189774725
sI1351
F6.643856189774725
sI1352
F6.643856189774725
sI1353
F6.643856189774725
sI1354
F6.643856189774725
sI1355
F6.643856189774725
sI1356
F6.643856189774725
sI1357
F6.643856189774725
sI1358
F5.643856189774724
sI1359
F6.643856189774725
sI1360
F6.643856189774725
sI1361
F6.643856189774725
sI1362
F6.643856189774725
sI1363
F6.643856189774725
sI1364
F5.643856189774724
sI1365
F6.643856189774725
sI1366
F6.643856189774725
sI1367
F6.643856189774725
sI1368
F6.643856189774725
sI1369
F6.643856189774725
sI1370
F6.643856189774725
sI1371
F6.643856189774725
sI1372
F5.643856189774724
sI1373
F5.643856189774724
sI1374
F6.643856189774725
sI1375
F5.643856189774724
sI1376
F5.643856189774724
sI1377
F6.643856189774725
sI1378
F6.643856189774725
sI1379
F6.643856189774725
sI1380
F6.643856189774725
sI1381
F6.643856189774725
sI1382
F6.643856189774725
sI1383
F6.643856189774725
sI1384
F6.643856189774725
sI1385
F5.643856189774724
sI1386
F4.058893689053568
sI1387
F5.643856189774724
sI1388
F5.643856189774724
sI1389
F6.643856189774725
sI1390
F6.643856189774725
sI1391
F6.643856189774725
sI1392
F6.643856189774725
sI1393
F6.643856189774725
sI1394
F5.058893689053569
sI1395
F5.643856189774724
sI1396
F6.643856189774725
sI1397
F6.643856189774725
sI1398
F6.643856189774725
sI1399
F6.643856189774725
sI1400
F6.643856189774725
sI1401
F6.643856189774725
sI1402
F6.643856189774725
sI1403
F6.643856189774725
sI1404
F6.643856189774725
sI1405
F5.643856189774724
sI1406
F6.643856189774725
sI1407
F6.643856189774725
sI1408
F6.643856189774725
sI1409
F6.643856189774725
sI1410
F6.643856189774725
sI1411
F6.643856189774725
sI1412
F5.643856189774724
sI1413
F6.643856189774725
sI1414
F6.643856189774725
sI1415
F6.643856189774725
sI1416
F6.643856189774725
sI1417
F6.643856189774725
sI1418
F6.643856189774725
sI1419
F6.643856189774725
sI1420
F6.643856189774725
sI1421
F6.643856189774725
sI1422
F5.058893689053569
sI1423
F6.643856189774725
sI1424
F6.643856189774725
sI1425
F6.643856189774725
sI1426
F6.643856189774725
sI1427
F6.643856189774725
sI1428
F6.643856189774725
sI1429
F5.058893689053569
sI1430
F5.643856189774724
sI1431
F6.643856189774725
sI1432
F6.643856189774725
sI1433
F6.643856189774725
sI1434
F6.643856189774725
sI1435
F6.643856189774725
sI1436
F6.643856189774725
sI1437
F6.643856189774725
sI1438
F6.643856189774725
sI1439
F6.643856189774725
sI1440
F6.643856189774725
sI1441
F6.643856189774725
sI1442
F6.643856189774725
sI1443
F6.643856189774725
sI1444
F5.643856189774724
sI1445
F6.643856189774725
sI1446
F6.643856189774725
sI1447
F6.643856189774725
sI1448
F5.643856189774724
sI1449
F6.643856189774725
sI1450
F6.643856189774725
sI1451
F6.643856189774725
sI1452
F6.643856189774725
sI1453
F6.643856189774725
sI1454
F6.643856189774725
sI1455
F6.643856189774725
sI1456
F6.643856189774725
sI1457
F6.643856189774725
sI1458
F6.643856189774725
sI1459
F6.643856189774725
sI1460
F6.643856189774725
sI1461
F6.643856189774725
sI1462
F6.643856189774725
sI1463
F6.643856189774725
sI1464
F6.643856189774725
sI1465
F6.643856189774725
sI1466
F6.643856189774725
sI1467
F6.643856189774725
sI1468
F6.643856189774725
sI1469
F5.643856189774724
sI1470
F6.643856189774725
sI1471
F5.643856189774724
sI1472
F6.643856189774725
sI1473
F6.643856189774725
sI1474
F5.643856189774724
sI1475
F4.643856189774724
sI1476
F6.643856189774725
sI1477
F6.643856189774725
sI1478
F6.643856189774725
sI1479
F5.643856189774724
sI1480
F6.643856189774725
sI1481
F6.643856189774725
sI1482
F6.643856189774725
sI1483
F6.643856189774725
sI1484
F6.643856189774725
sI1485
F6.643856189774725
sI1486
F6.643856189774725
sI1487
F6.643856189774725
sI1488
F6.643856189774725
sI1489
F6.643856189774725
sI1490
F6.643856189774725
sI1491
F6.643856189774725
sI1492
F6.643856189774725
sI1493
F6.643856189774725
sI1494
F6.643856189774725
sI1495
F5.058893689053569
sI1496
F6.643856189774725
sI1497
F6.643856189774725
sI1498
F6.643856189774725
sI1499
F6.643856189774725
sI1500
F6.643856189774725
sI1501
F6.643856189774725
sI1502
F6.643856189774725
sI1503
F6.643856189774725
sI1504
F6.643856189774725
sI1505
F6.643856189774725
sI1506
F6.643856189774725
sI1507
F6.643856189774725
sI1508
F6.643856189774725
sI1509
F6.643856189774725
sI1510
F6.643856189774725
sI1511
F6.643856189774725
sI1512
F6.643856189774725
sI1513
F6.643856189774725
sI1514
F6.643856189774725
sI1515
F6.643856189774725
sI1516
F6.643856189774725
sI1517
F6.643856189774725
sI1518
F6.643856189774725
sI1519
F5.643856189774724
sI1520
F5.643856189774724
sI1521
F6.643856189774725
sI1522
F6.643856189774725
sI1523
F6.643856189774725
sI1524
F6.643856189774725
sI1525
F6.643856189774725
sI1526
F6.643856189774725
sI1527
F6.643856189774725
sI1528
F6.643856189774725
sI1529
F5.643856189774724
sI1530
F6.643856189774725
sI1531
F6.643856189774725
sI1532
F6.643856189774725
sI1533
F6.643856189774725
sI1534
F6.643856189774725
sI1535
F6.643856189774725
sI1536
F6.643856189774725
sI1537
F5.643856189774724
sI1538
F6.643856189774725
sI1539
F5.643856189774724
sI1540
F6.643856189774725
sI1541
F5.643856189774724
sI1542
F6.643856189774725
sI1543
F6.643856189774725
sI1544
F6.643856189774725
sI1545
F6.643856189774725
sI1546
F6.643856189774725
sI1547
F6.643856189774725
sI1548
F5.643856189774724
sI1549
F6.643856189774725
sI1550
F6.643856189774725
sI1551
F6.643856189774725
sI1552
F6.643856189774725
sI1553
F6.643856189774725
sI1554
F6.643856189774725
sI1555
F6.643856189774725
sI1556
F6.643856189774725
sI1557
F6.643856189774725
sI1558
F6.643856189774725
sI1559
F6.643856189774725
sI1560
F6.643856189774725
sI1561
F6.643856189774725
sI1562
F6.643856189774725
sI1563
F6.643856189774725
sI1564
F6.643856189774725
sI1565
F6.643856189774725
sI1566
F6.643856189774725
sI1567
F6.643856189774725
sI1568
F6.643856189774725
sI1569
F6.643856189774725
sI1570
F6.643856189774725
sI1571
F6.643856189774725
sI1572
F6.643856189774725
sI1573
F6.643856189774725
sI1574
F6.643856189774725
sI1575
F6.643856189774725
sI1576
F6.643856189774725
sI1577
F6.643856189774725
sI1578
F5.058893689053569
sI1579
F6.643856189774725
sI1580
F6.643856189774725
sI1581
F6.643856189774725
sI1582
F6.643856189774725
sI1583
F6.643856189774725
sI1584
F6.643856189774725
sI1585
F6.643856189774725
sI1586
F6.643856189774725
sI1587
F6.643856189774725
sI1588
F6.643856189774725
sI1589
F6.643856189774725
sI1590
F6.643856189774725
sI1591
F6.643856189774725
sI1592
F6.643856189774725
sI1593
F6.643856189774725
sI1594
F6.643856189774725
sI1595
F6.643856189774725
sI1596
F6.643856189774725
sI1597
F6.643856189774725
sI1598
F6.643856189774725
sI1599
F6.643856189774725
sI1600
F6.643856189774725
sI1601
F5.058893689053569
sI1602
F5.643856189774724
sI1603
F6.643856189774725
sI1604
F5.643856189774724
sI1605
F6.643856189774725
sI1606
F6.643856189774725
sI1607
F6.643856189774725
sI1608
F6.643856189774725
sI1609
F6.643856189774725
sI1610
F5.643856189774724
sI1611
F6.643856189774725
sI1612
F6.643856189774725
sI1613
F6.643856189774725
sI1614
F5.643856189774724
sI1615
F6.643856189774725
sI1616
F6.643856189774725
sI1617
F5.643856189774724
sI1618
F6.643856189774725
sI1619
F6.643856189774725
sI1620
F6.643856189774725
sI1621
F6.643856189774725
sI1622
F6.643856189774725
sI1623
F6.643856189774725
sI1624
F6.643856189774725
sI1625
F5.643856189774724
sI1626
F6.643856189774725
sI1627
F6.643856189774725
sI1628
F5.643856189774724
sI1629
F6.643856189774725
sI1630
F6.643856189774725
sI1631
F6.643856189774725
sI1632
F6.643856189774725
sI1633
F6.643856189774725
sI1634
F6.643856189774725
sI1635
F6.643856189774725
sI1636
F6.643856189774725
sI1637
F6.643856189774725
sI1638
F6.643856189774725
sI1639
F6.643856189774725
sI1640
F6.643856189774725
sI1641
F6.643856189774725
sI1642
F6.643856189774725
sI1643
F6.643856189774725
sI1644
F6.643856189774725
sI1645
F6.643856189774725
sI1646
F6.643856189774725
sI1647
F6.643856189774725
sI1648
F6.643856189774725
sI1649
F5.643856189774724
sI1650
F6.643856189774725
sI1651
F6.643856189774725
sI1652
F6.643856189774725
sI1653
F6.643856189774725
sI1654
F6.643856189774725
sI1655
F6.643856189774725
sI1656
F6.643856189774725
sI1657
F6.643856189774725
sI1658
F5.058893689053569
sI1659
F6.643856189774725
sI1660
F6.643856189774725
sI1661
F6.643856189774725
sI1662
F6.643856189774725
sI1663
F5.643856189774724
sI1664
F6.643856189774725
sI1665
F6.643856189774725
sI1666
F6.643856189774725
sI1667
F6.643856189774725
sI1668
F6.643856189774725
sI1669
F6.643856189774725
sI1670
F6.643856189774725
sI1671
F6.643856189774725
sI1672
F6.643856189774725
sI1673
F6.643856189774725
sI1674
F6.643856189774725
sI1675
F6.643856189774725
sI1676
F6.643856189774725
sI1677
F6.643856189774725
sI1678
F6.643856189774725
sI1679
F6.643856189774725
sI1680
F6.643856189774725
sI1681
F6.643856189774725
sI1682
F6.643856189774725
sI1683
F6.643856189774725
sI1684
F6.643856189774725
sI1685
F6.643856189774725
sI1686
F6.643856189774725
sI1687
F6.643856189774725
sI1688
F6.643856189774725
sI1689
F6.643856189774725
sI1690
F6.643856189774725
sI1691
F6.643856189774725
sI1692
F6.643856189774725
sI1693
F6.643856189774725
sI1694
F6.643856189774725
sI1695
F6.643856189774725
sI1696
F6.643856189774725
sI1697
F6.643856189774725
sI1698
F6.643856189774725
sI1699
F6.643856189774725
sI1700
F6.643856189774725
sI1701
F6.643856189774725
sI1702
F6.643856189774725
sI1703
F6.643856189774725
sI1704
F6.643856189774725
sI1705
F6.643856189774725
sI1706
F6.643856189774725
sI1707
F6.643856189774725
sI1708
F6.643856189774725
sI1709
F6.643856189774725
sI1710
F6.643856189774725
sI1711
F6.643856189774725
sI1712
F6.643856189774725
sI1713
F6.643856189774725
sI1714
F6.643856189774725
sI1715
F6.643856189774725
sI1716
F6.643856189774725
sI1717
F6.643856189774725
sI1718
F6.643856189774725
sI1719
F6.643856189774725
sI1720
F6.643856189774725
sI1721
F6.643856189774725
sI1722
F6.643856189774725
sI1723
F6.643856189774725
sI1724
F6.643856189774725
sI1725
F6.643856189774725
sI1726
F6.643856189774725
sI1727
F6.643856189774725
sI1728
F6.643856189774725
sI1729
F6.643856189774725
sI1730
F6.643856189774725
sI1731
F6.643856189774725
sI1732
F6.643856189774725
sI1733
F6.643856189774725
sI1734
F6.643856189774725
sI1735
F6.643856189774725
sI1736
F6.643856189774725
sI1737
F6.643856189774725
sI1738
F6.643856189774725
sI1739
F6.643856189774725
sI1740
F6.643856189774725
sI1741
F6.643856189774725
sI1742
F6.643856189774725
sI1743
F6.643856189774725
sI1744
F6.643856189774725
sI1745
F6.643856189774725
sI1746
F6.643856189774725
sI1747
F6.643856189774725
sI1748
F6.643856189774725
sI1749
F6.643856189774725
sI1750
F6.643856189774725
sI1751
F6.643856189774725
sI1752
F6.643856189774725
sI1753
F6.643856189774725
sI1754
F6.643856189774725
sI1755
F6.643856189774725
sI1756
F6.643856189774725
sI1757
F6.643856189774725
sI1758
F6.643856189774725
sI1759
F6.643856189774725
sI1760
F6.643856189774725
sI1761
F6.643856189774725
sI1762
F6.643856189774725
sI1763
F6.643856189774725
sI1764
F6.643856189774725
sI1765
F6.643856189774725
sI1766
F6.643856189774725
sI1767
F6.643856189774725
sI1768
F6.643856189774725
sI1769
F6.643856189774725
sI1770
F6.643856189774725
sI1771
F6.643856189774725
sI1772
F6.643856189774725
sI1773
F6.643856189774725
sI1774
F6.643856189774725
sI1775
F6.643856189774725
sI1776
F6.643856189774725
sI1777
F6.643856189774725
sI1778
F6.643856189774725
sI1779
F6.643856189774725
sI1780
F6.643856189774725
sI1781
F6.643856189774725
sI1782
F6.643856189774725
sI1783
F6.643856189774725
sI1784
F6.643856189774725
sI1785
F6.643856189774725
sI1786
F6.643856189774725
sI1787
F6.643856189774725
sI1788
F6.643856189774725
sI1789
F6.643856189774725
sI1790
F6.643856189774725
sI1791
F6.643856189774725
sI1792
F6.643856189774725
sI1793
F6.643856189774725
sI1794
F6.643856189774725
sI1795
F6.643856189774725
sI1796
F6.643856189774725
sI1797
F6.643856189774725
sI1798
F6.643856189774725
sI1799
F6.643856189774725
sI1800
F6.643856189774725
sI1801
F6.643856189774725
sI1802
F6.643856189774725
sI1803
F6.643856189774725
sI1804
F6.643856189774725
sI1805
F6.643856189774725
sI1806
F6.643856189774725
sI1807
F6.643856189774725
sI1808
F6.643856189774725
sI1809
F6.643856189774725
sI1810
F6.643856189774725
sI1811
F6.643856189774725
sI1812
F6.643856189774725
sI1813
F6.643856189774725
sI1814
F6.643856189774725
sI1815
F6.643856189774725
sI1816
F6.643856189774725
sI1817
F6.643856189774725
sI1818
F6.643856189774725
sI1819
F6.643856189774725
sI1820
F6.643856189774725
sI1821
F6.643856189774725
sI1822
F6.643856189774725
sI1823
F5.643856189774724
sI1824
F6.643856189774725
sI1825
F6.643856189774725
sI1826
F6.643856189774725
sI1827
F6.643856189774725
sI1828
F6.643856189774725
sI1829
F6.643856189774725
sI1830
F6.643856189774725
sI1831
F6.643856189774725
sI1832
F6.643856189774725
sI1833
F6.643856189774725
sI1834
F4.643856189774724
sI1835
F4.643856189774724
sI1836
F6.643856189774725
sI1837
F6.643856189774725
sI1838
F6.643856189774725
sI1839
F6.643856189774725
sI1840
F4.643856189774724
sI1841
F4.643856189774724
sI1842
F4.643856189774724
sI1843
F6.643856189774725
sI1844
F4.643856189774724
sI1845
F4.643856189774724
sI1846
F6.643856189774725
sI1847
F6.643856189774725
sI1848
F6.643856189774725
sI1849
F6.643856189774725
sI1850
F6.643856189774725
sI1851
F6.643856189774725
sI1852
F6.643856189774725
sI1853
F6.643856189774725
sI1854
F6.643856189774725
sI1855
F6.643856189774725
sI1856
F6.643856189774725
sI1857
F6.643856189774725
sI1858
F6.643856189774725
sI1859
F6.643856189774725
sI1860
F6.643856189774725
sI1861
F6.643856189774725
sI1862
F6.643856189774725
sI1863
F6.643856189774725
sI1864
F6.643856189774725
sI1865
F6.643856189774725
sI1866
F6.643856189774725
sI1867
F6.643856189774725
sI1868
F6.643856189774725
sI1869
F5.643856189774724
sI1870
F6.643856189774725
sI1871
F6.643856189774725
sI1872
F6.643856189774725
sI1873
F5.643856189774724
sI1874
F5.643856189774724
sI1875
F6.643856189774725
sI1876
F6.643856189774725
sI1877
F6.643856189774725
sI1878
F6.643856189774725
sI1879
F5.643856189774724
sI1880
F6.643856189774725
sI1881
F6.643856189774725
sI1882
F6.643856189774725
sI1883
F6.643856189774725
sI1884
F6.643856189774725
sI1885
F6.643856189774725
sI1886
F6.643856189774725
sI1887
F6.643856189774725
sI1888
F6.643856189774725
sI1889
F6.643856189774725
sI1890
F6.643856189774725
s(dp7
g3
g4
stp8
a.